target datalayout = "e-m:e-p270:32:32-p271:32:32-p272:64:64-i64:64-i128:128-f80:128-n8:16:32:64-S128"
target triple = "x86_64-pc-linux-gnu"

%struct.SDL_GPUDevice = type { ptr, ptr, ptr, ptr, ptr, ptr, ptr, ptr, ptr, ptr, ptr, ptr, ptr, ptr, ptr, ptr, ptr, ptr, ptr, ptr, ptr, ptr, ptr, ptr, ptr, ptr, ptr, ptr, ptr, ptr, ptr, ptr, ptr, ptr, ptr, ptr, ptr, ptr, ptr, ptr, ptr, ptr, ptr, ptr, ptr, ptr, ptr, ptr, ptr, ptr, ptr, ptr, ptr, ptr, ptr, ptr, ptr, ptr, ptr, ptr, ptr, ptr, ptr, ptr, ptr, ptr, ptr, ptr, ptr, ptr, ptr, ptr, ptr, ptr, ptr, ptr, ptr, ptr, ptr, ptr, ptr, ptr, ptr, ptr, ptr, i32, i8 }
%struct.CommandBufferCommonHeader = type { ptr, %struct.RenderPass, i8, %struct.Pass, i8, %struct.Pass, i8, i8, i8 }
%struct.RenderPass = type { ptr, i8, [4 x ptr], i32, ptr }
%struct.Pass = type { ptr, i8 }

@.str.4 = private unnamed_addr constant [26 x i8] c"Parameter '%s' is invalid\00", align 1
@.str.8 = private unnamed_addr constant [103 x i8] c"generated/home/dtcxzyw/WorkSpace/Projects/compilers/llvm-opt-benchmark/bench/sdl/SDL/src/gpu/SDL_gpu.c\00", align 1
@.str.286 = private unnamed_addr constant [10 x i8] c"copy_pass\00", align 1
@SDL_EndGPUCopyPass_REAL.sdl_assert_data = internal global { i8, [3 x i8], i32, ptr, ptr, i32, [4 x i8], ptr, ptr } { i8 0, [3 x i8] zeroinitializer, i32 0, ptr @.str.290, ptr null, i32 0, [4 x i8] zeroinitializer, ptr null, ptr null }, align 8
@__func__.SDL_EndGPUCopyPass_REAL = private unnamed_addr constant [24 x i8] c"SDL_EndGPUCopyPass_REAL\00", align 1

; Function Attrs: nounwind uwtable
define hidden void @SDL_EndGPUCopyPass_REAL(ptr noundef %0) #0 {
  %2 = alloca ptr, align 8
  %3 = alloca i32, align 4
  %4 = alloca i32, align 4
  store ptr %0, ptr %2, align 8
  %5 = load ptr, ptr %2, align 8
  %6 = icmp eq ptr %5, null
  br i1 %6, label %7, label %9

7:                                                ; preds = %1
  %8 = call zeroext i1 (ptr, ...) @SDL_SetError_REAL(ptr noundef @.str.4, ptr noundef @.str.286)
  br label %57

9:                                                ; preds = %1
  %10 = load ptr, ptr %2, align 8
  %11 = getelementptr inbounds nuw %struct.Pass, ptr %10, i32 0, i32 0
  %12 = load ptr, ptr %11, align 8
  %13 = getelementptr inbounds nuw %struct.CommandBufferCommonHeader, ptr %12, i32 0, i32 0
  %14 = load ptr, ptr %13, align 8
  %15 = getelementptr inbounds nuw %struct.SDL_GPUDevice, ptr %14, i32 0, i32 86
  %16 = load i8, ptr %15, align 4, !range !5, !noundef !6
  %17 = trunc i8 %16 to i1
  br i1 %17, label %18, label %41

18:                                               ; preds = %9
  %19 = load ptr, ptr %2, align 8
  %20 = getelementptr inbounds nuw %struct.Pass, ptr %19, i32 0, i32 1
  %21 = load i8, ptr %20, align 8, !range !5, !noundef !6
  %22 = trunc i8 %21 to i1
  br i1 %22, label %40, label %23

23:                                               ; preds = %18
  br label %24

24:                                               ; preds = %23
  br label %25

25:                                               ; preds = %24, %36
  call void @llvm.lifetime.start.p0(i64 4, ptr %3) #6
  %26 = call i32 @SDL_ReportAssertion_REAL(ptr noundef @SDL_EndGPUCopyPass_REAL.sdl_assert_data, ptr noundef @__func__.SDL_EndGPUCopyPass_REAL, ptr noundef @.str.8, i32 noundef 2696)
  store i32 %26, ptr %3, align 4
  %27 = load i32, ptr %3, align 4
  %28 = icmp eq i32 %27, 0
  br i1 %28, label %29, label %30

29:                                               ; preds = %25
  store i32 4, ptr %4, align 4
  br label %36

30:                                               ; preds = %25
  %31 = load i32, ptr %3, align 4
  %32 = icmp eq i32 %31, 1
  br i1 %32, label %33, label %34

33:                                               ; preds = %30
  call void @llvm.debugtrap()
  br label %34

34:                                               ; preds = %33, %30
  br label %35

35:                                               ; preds = %34
  store i32 5, ptr %4, align 4
  br label %36

36:                                               ; preds = %35, %29
  call void @llvm.lifetime.end.p0(i64 4, ptr %3) #6
  %37 = load i32, ptr %4, align 4
  switch i32 %37, label %58 [
    i32 4, label %25
    i32 5, label %38
  ]

38:                                               ; preds = %36
  br label %39

39:                                               ; preds = %38
  br label %57

40:                                               ; preds = %18
  br label %41

41:                                               ; preds = %40, %9
  %42 = load ptr, ptr %2, align 8
  %43 = getelementptr inbounds nuw %struct.Pass, ptr %42, i32 0, i32 0
  %44 = load ptr, ptr %43, align 8
  %45 = getelementptr inbounds nuw %struct.CommandBufferCommonHeader, ptr %44, i32 0, i32 0
  %46 = load ptr, ptr %45, align 8
  %47 = getelementptr inbounds nuw %struct.SDL_GPUDevice, ptr %46, i32 0, i32 61
  %48 = load ptr, ptr %47, align 8
  %49 = load ptr, ptr %2, align 8
  %50 = getelementptr inbounds nuw %struct.Pass, ptr %49, i32 0, i32 0
  %51 = load ptr, ptr %50, align 8
  call void %48(ptr noundef %51)
  %52 = load ptr, ptr %2, align 8
  %53 = getelementptr inbounds nuw %struct.Pass, ptr %52, i32 0, i32 0
  %54 = load ptr, ptr %53, align 8
  %55 = getelementptr inbounds nuw %struct.CommandBufferCommonHeader, ptr %54, i32 0, i32 5
  %56 = getelementptr inbounds nuw %struct.Pass, ptr %55, i32 0, i32 1
  store i8 0, ptr %56, align 8
  br label %57

57:                                               ; preds = %41, %39, %7
  ret void

58:                                               ; preds = %36
  unreachable
}